; Function Attrs: nounwind sspstrong uwtable
define i64 @rsock_addrinfo_inspect_sockaddr(i64 noundef %0) #0 {
  %2 = tail call i64 @rb_str_new_static(ptr noundef nonnull @.str.9, i64 noundef 0) #21
  %3 = tail call ptr @rb_check_typeddata(i64 noundef %0, ptr noundef nonnull @addrinfo_type) #21
  %.not.i.i = icmp eq ptr %3, null
  br i1 %.not.i.i, label %4, label %inspect_sockaddr.exit

4:                                                ; preds = %1
  %5 = load i64, ptr @rb_eTypeError, align 8, !tbaa !35
  tail call void (i64, ptr, ...) @rb_raise(i64 noundef %5, ptr noundef nonnull @.str.101) #23
  unreachable

inspect_sockaddr.exit:                            ; preds = %1
  %6 = getelementptr inbounds nuw i8, ptr %3, i64 32
  %7 = getelementptr inbounds nuw i8, ptr %3, i64 28
  %8 = load i32, ptr %7, align 4, !tbaa !118
  %9 = tail call i64 @rsock_inspect_sockaddr(ptr noundef nonnull %6, i32 noundef %8, i64 noundef %2)
  ret i64 %2
}